target datalayout = "e-m:e-p270:32:32-p271:32:32-p272:64:64-i64:64-i128:128-f80:128-n8:16:32:64-S128"
target triple = "x86_64-pc-linux-gnu"

%struct.prov_aria_gcm_ctx_st = type { %struct.prov_gcm_ctx_st, %union.anon.0 }
%struct.prov_gcm_ctx_st = type { i32, i64, i64, i64, i64, i64, i64, i64, i64, i64, i32, i8, [128 x i8], [16 x i8], ptr, ptr, %struct.gcm128_context, ptr }
%struct.gcm128_context = type { %union.anon, %union.anon, %union.anon, %union.anon, %union.anon, %union.anon, [16 x %struct.u128], %struct.gcm_funcs_st, i32, i32, ptr, ptr, [48 x i8] }
%union.anon = type { [2 x i64] }
%struct.u128 = type { i64, i64 }
%struct.gcm_funcs_st = type { ptr, ptr, ptr }
%union.anon.0 = type { double, [272 x i8] }

@.str = private unnamed_addr constant [63 x i8] c"../openssl/providers/implementations/ciphers/cipher_aria_gcm.c\00", align 1

; Function Attrs: nounwind uwtable
define internal ptr @aria_gcm_dupctx(ptr noundef %0) #0 {
  %2 = alloca ptr, align 8
  %3 = alloca ptr, align 8
  %4 = alloca ptr, align 8
  %5 = alloca ptr, align 8
  %6 = alloca i32, align 4
  store ptr %0, ptr %3, align 8, !tbaa !3
  call void @llvm.lifetime.start.p0(i64 8, ptr %4) #3
  %7 = load ptr, ptr %3, align 8, !tbaa !3
  store ptr %7, ptr %4, align 8, !tbaa !7
  call void @llvm.lifetime.start.p0(i64 8, ptr %5) #3
  store ptr null, ptr %5, align 8, !tbaa !7
  %8 = load ptr, ptr %4, align 8, !tbaa !7
  %9 = icmp eq ptr %8, null
  br i1 %9, label %10, label %11

10:                                               ; preds = %1
  store ptr null, ptr %2, align 8
  store i32 1, ptr %6, align 4
  br label %32

11:                                               ; preds = %1
  %12 = load ptr, ptr %4, align 8, !tbaa !7
  %13 = call noalias ptr @CRYPTO_memdup(ptr noundef %12, i64 noundef 984, ptr noundef @.str, i32 noundef 38)
  store ptr %13, ptr %5, align 8, !tbaa !7
  %14 = load ptr, ptr %5, align 8, !tbaa !7
  %15 = icmp ne ptr %14, null
  br i1 %15, label %16, label %30

16:                                               ; preds = %11
  %17 = load ptr, ptr %5, align 8, !tbaa !7
  %18 = getelementptr inbounds nuw %struct.prov_aria_gcm_ctx_st, ptr %17, i32 0, i32 0
  %19 = getelementptr inbounds nuw %struct.prov_gcm_ctx_st, ptr %18, i32 0, i32 16
  %20 = getelementptr inbounds nuw %struct.gcm128_context, ptr %19, i32 0, i32 11
  %21 = load ptr, ptr %20, align 8, !tbaa !13
  %22 = icmp ne ptr %21, null
  br i1 %22, label %23, label %30

23:                                               ; preds = %16
  %24 = load ptr, ptr %5, align 8, !tbaa !7
  %25 = getelementptr inbounds nuw %struct.prov_aria_gcm_ctx_st, ptr %24, i32 0, i32 1
  %26 = load ptr, ptr %5, align 8, !tbaa !7
  %27 = getelementptr inbounds nuw %struct.prov_aria_gcm_ctx_st, ptr %26, i32 0, i32 0
  %28 = getelementptr inbounds nuw %struct.prov_gcm_ctx_st, ptr %27, i32 0, i32 16
  %29 = getelementptr inbounds nuw %struct.gcm128_context, ptr %28, i32 0, i32 11
  store ptr %25, ptr %29, align 8, !tbaa !13
  br label %30

30:                                               ; preds = %23, %16, %11
  %31 = load ptr, ptr %5, align 8, !tbaa !7
  store ptr %31, ptr %2, align 8
  store i32 1, ptr %6, align 4
  br label %32

32:                                               ; preds = %30, %10
  call void @llvm.lifetime.end.p0(i64 8, ptr %5) #3
  call void @llvm.lifetime.end.p0(i64 8, ptr %4) #3
  %33 = load ptr, ptr %2, align 8
  ret ptr %33
}

; Function Attrs: nounwind uwtable
define internal ptr @aria192gcm_dupctx(ptr noundef %0) #0 {
  %2 = alloca ptr, align 8
  store ptr %0, ptr %2, align 8, !tbaa !3
  %3 = load ptr, ptr %2, align 8, !tbaa !3
  %4 = call ptr @aria_gcm_dupctx(ptr noundef %3)
  ret ptr %4
}